#include <math.h>
#include <stdio.h>
#include <stdlib.h>
#include <string.h>
#include <iostream>
using namespace std;

int main()
{
  int fj(int m,int min); 
  int t,i,a[100];
  cin>>t;
  for(i=1;i<=t;i++)
     {
       
       cin>>a[i];
       cout<<fj(a[i],2)<<endl;
     }
 
  return 0;
}
   int fj(int m,int min)
{
   int counter=1;
   int i;
   if(m<min)
     return 0;
     for(i=min;i<m;i++)
         if(m%i==0)
         {
           counter=fj(m/i,i)+counter; 
         }
   return counter;
   
}